target datalayout = "e-m:e-p270:32:32-p271:32:32-p272:64:64-i64:64-i128:128-f80:128-n8:16:32:64-S128"
target triple = "x86_64-pc-linux-gnu"

%struct.oidset = type { %struct.kh_oid_set }
%struct.kh_oid_set = type { i32, i32, i32, i32, ptr, ptr, ptr }
%struct.rev_info = type { ptr, %struct.object_array, ptr, %struct.object_array, %struct.rev_cmdline_info, %struct.list_objects_filter_options, %struct.ref_exclusions, ptr, ptr, ptr, %struct.pathspec, i32, i32, i32, i32, i64, i32, i32, %struct.date_mode, i32, i32, i32, i32, ptr, i32, i32, ptr, ptr, i32, ptr, ptr, %struct.ident_split, ptr, i32, ptr, ptr, ptr, i32, i32, i32, ptr, %struct.grep_opt, ptr, i32, i32, i64, i64, i64, i32, i32, ptr, ptr, ptr, %struct.diff_options, %struct.diff_options, ptr, %struct.decoration, %struct.decoration, %struct.decoration, %struct.display_notes_opt, ptr, ptr, ptr, ptr, ptr, i32, ptr, i32, i32, i32, %struct.decoration, ptr, ptr, ptr, ptr, ptr, ptr, ptr, i32, ptr, i32, ptr, %struct.oidset }
%struct.object_array = type { i32, i32, ptr }
%struct.rev_cmdline_info = type { i32, i32, ptr }
%struct.list_objects_filter_options = type { %struct.strbuf, i32, i8, ptr, i64, i64, i32, i64, i64, ptr }
%struct.strbuf = type { i64, i64, ptr }
%struct.ref_exclusions = type { %struct.string_list, %struct.strvec, i8 }
%struct.string_list = type { ptr, i64, i64, i8, ptr }
%struct.strvec = type { ptr, i64, i64 }
%struct.pathspec = type { i32, i8, i32, i32, ptr }
%struct.date_mode = type { i32, i32, ptr }
%struct.ident_split = type { ptr, ptr, ptr, ptr, ptr, ptr, ptr, ptr }
%struct.grep_opt = type { ptr, ptr, ptr, ptr, ptr, ptr, i32, i32, i32, i32, i32, i32, i32, i32, i32, i32, i32, i32, i32, i32, i32, i32, i32, i32, i32, i32, i32, i32, i32, i32, i32, i32, [9 x [75 x i8]], i32, i32, i32, i32, i32, i32, i32, ptr, ptr, ptr }
%struct.diff_options = type { ptr, ptr, i32, i32, ptr, i32, ptr, i64, i64, ptr, ptr, ptr, ptr, %struct.diff_flags, i32, i32, i32, i32, i32, i32, i32, i32, i32, i32, i32, i32, i32, i32, i32, i32, i32, i32, i32, i32, i32, i32, ptr, i32, ptr, i32, i32, ptr, i64, i64, i32, i32, i32, i32, ptr, i32, i32, ptr, i32, i32, ptr, ptr, i32, [3 x i8], %struct.pathspec, ptr, ptr, ptr, ptr, ptr, ptr, ptr, ptr, i32, ptr, i32, i32, ptr, ptr, i32 }
%struct.diff_flags = type { i32, i32, i32, i32, i32, i32, i32, i32, i32, i32, i32, i32, i32, i32, i32, i32, i32, i32, i32, i32, i32, i32, i32, i32, i32, i32, i32, i32, i32, i32, i32, i32, i32, i32, i32 }
%struct.display_notes_opt = type { i32, %struct.string_list }
%struct.decoration = type { ptr, i32, i32, ptr }
%struct.object = type { i32, %struct.object_id }
%struct.object_id = type { [32 x i8], i32 }
%struct.tree = type { %struct.object, ptr, i64 }
%struct.traversal_context = type { ptr, ptr, ptr, ptr, ptr, i32 }
%struct.blob = type { %struct.object }
%struct.tree_desc = type { ptr, ptr, %struct.name_entry, i32, i32 }
%struct.name_entry = type { %struct.object_id, ptr, i32, i32 }
%struct.repository = type { ptr, ptr, ptr, ptr, ptr, %struct.strmap, %struct.strmap, %struct.repo_path_cache, ptr, ptr, ptr, ptr, %struct.repo_settings, ptr, ptr, ptr, ptr, ptr, ptr, i32, i32, i32, ptr, ptr, i32, i32, i8 }
%struct.strmap = type { %struct.hashmap, ptr, i8 }
%struct.hashmap = type { ptr, ptr, ptr, i32, i32, i32, i32, i8 }
%struct.repo_path_cache = type { ptr, ptr, ptr, ptr, ptr, ptr, ptr }
%struct.repo_settings = type { i32, i32, i32, i32, i32, i32, i32, i32, i32, i32, i32, i32, ptr, i32, i32, i32, i32, i32, i32, i32, i64, i64, i64 }

@.str.8 = private unnamed_addr constant [55 x i8] c"entry '%s' in tree %s has tree mode, but is not a tree\00", align 1
@.str.9 = private unnamed_addr constant [55 x i8] c"entry '%s' in tree %s has blob mode, but is not a blob\00", align 1

; Function Attrs: nounwind uwtable
define internal void @process_tree_contents(ptr noundef %0, ptr noundef %1, ptr noundef %2) #0 {
  %4 = alloca ptr, align 8
  %5 = alloca ptr, align 8
  %6 = alloca ptr, align 8
  %7 = alloca %struct.tree_desc, align 8
  %8 = alloca %struct.name_entry, align 8
  %9 = alloca i32, align 4
  %10 = alloca ptr, align 8
  %11 = alloca ptr, align 8
  store ptr %0, ptr %4, align 8, !tbaa !99
  store ptr %1, ptr %5, align 8, !tbaa !68
  store ptr %2, ptr %6, align 8, !tbaa !104
  call void @llvm.lifetime.start.p0(i64 80, ptr %7) #8
  call void @llvm.lifetime.start.p0(i64 56, ptr %8) #8
  call void @llvm.lifetime.start.p0(i64 4, ptr %9) #8
  %12 = load ptr, ptr %4, align 8, !tbaa !99
  %13 = getelementptr inbounds nuw %struct.traversal_context, ptr %12, i32 0, i32 0
  %14 = load ptr, ptr %13, align 8, !tbaa !90
  %15 = getelementptr inbounds nuw %struct.rev_info, ptr %14, i32 0, i32 53
  %16 = getelementptr inbounds nuw %struct.diff_options, ptr %15, i32 0, i32 58
  %17 = getelementptr inbounds nuw %struct.pathspec, ptr %16, i32 0, i32 0
  %18 = load i32, ptr %17, align 8, !tbaa !126
  %19 = icmp eq i32 %18, 0
  %20 = select i1 %19, i32 2, i32 0
  store i32 %20, ptr %9, align 4, !tbaa !10
  %21 = load ptr, ptr %5, align 8, !tbaa !68
  %22 = getelementptr inbounds nuw %struct.tree, ptr %21, i32 0, i32 0
  %23 = getelementptr inbounds nuw %struct.object, ptr %22, i32 0, i32 1
  %24 = load ptr, ptr %5, align 8, !tbaa !68
  %25 = getelementptr inbounds nuw %struct.tree, ptr %24, i32 0, i32 1
  %26 = load ptr, ptr %25, align 8, !tbaa !127
  %27 = load ptr, ptr %5, align 8, !tbaa !68
  %28 = getelementptr inbounds nuw %struct.tree, ptr %27, i32 0, i32 2
  %29 = load i64, ptr %28, align 8, !tbaa !129
  call void @init_tree_desc(ptr noundef %7, ptr noundef %23, ptr noundef %26, i64 noundef %29)
  br label %30

30:                                               ; preds = %147, %57, %3
  %31 = call i32 @tree_entry(ptr noundef %7, ptr noundef %8)
  %32 = icmp ne i32 %31, 0
  br i1 %32, label %33, label %148

33:                                               ; preds = %30
  %34 = load i32, ptr %9, align 4, !tbaa !10
  %35 = icmp ne i32 %34, 2
  br i1 %35, label %36, label %59

36:                                               ; preds = %33
  %37 = load ptr, ptr %4, align 8, !tbaa !99
  %38 = getelementptr inbounds nuw %struct.traversal_context, ptr %37, i32 0, i32 0
  %39 = load ptr, ptr %38, align 8, !tbaa !90
  %40 = getelementptr inbounds nuw %struct.rev_info, ptr %39, i32 0, i32 2
  %41 = load ptr, ptr %40, align 8, !tbaa !73
  %42 = getelementptr inbounds nuw %struct.repository, ptr %41, i32 0, i32 15
  %43 = load ptr, ptr %42, align 8, !tbaa !130
  %44 = load ptr, ptr %6, align 8, !tbaa !104
  %45 = load ptr, ptr %4, align 8, !tbaa !99
  %46 = getelementptr inbounds nuw %struct.traversal_context, ptr %45, i32 0, i32 0
  %47 = load ptr, ptr %46, align 8, !tbaa !90
  %48 = getelementptr inbounds nuw %struct.rev_info, ptr %47, i32 0, i32 53
  %49 = getelementptr inbounds nuw %struct.diff_options, ptr %48, i32 0, i32 58
  %50 = call i32 @tree_entry_interesting(ptr noundef %43, ptr noundef %8, ptr noundef %44, ptr noundef %49)
  store i32 %50, ptr %9, align 4, !tbaa !10
  %51 = load i32, ptr %9, align 4, !tbaa !10
  %52 = icmp eq i32 %51, -1
  br i1 %52, label %53, label %54

53:                                               ; preds = %36
  br label %148

54:                                               ; preds = %36
  %55 = load i32, ptr %9, align 4, !tbaa !10
  %56 = icmp eq i32 %55, 0
  br i1 %56, label %57, label %58

57:                                               ; preds = %54
  br label %30, !llvm.loop !148

58:                                               ; preds = %54
  br label %59

59:                                               ; preds = %58, %33
  %60 = getelementptr inbounds nuw %struct.name_entry, ptr %8, i32 0, i32 3
  %61 = load i32, ptr %60, align 4, !tbaa !149
  %62 = and i32 %61, 61440
  %63 = icmp eq i32 %62, 16384
  br i1 %63, label %64, label %106

64:                                               ; preds = %59
  call void @llvm.lifetime.start.p0(i64 8, ptr %10) #8
  %65 = load ptr, ptr %4, align 8, !tbaa !99
  %66 = getelementptr inbounds nuw %struct.traversal_context, ptr %65, i32 0, i32 0
  %67 = load ptr, ptr %66, align 8, !tbaa !90
  %68 = getelementptr inbounds nuw %struct.rev_info, ptr %67, i32 0, i32 2
  %69 = load ptr, ptr %68, align 8, !tbaa !73
  %70 = getelementptr inbounds nuw %struct.name_entry, ptr %8, i32 0, i32 0
  %71 = call ptr @lookup_tree(ptr noundef %69, ptr noundef %70)
  store ptr %71, ptr %10, align 8, !tbaa !68
  %72 = load ptr, ptr %10, align 8, !tbaa !68
  %73 = icmp ne ptr %72, null
  br i1 %73, label %82, label %74

74:                                               ; preds = %64
  %75 = call ptr @_(ptr noundef @.str.8)
  %76 = getelementptr inbounds nuw %struct.name_entry, ptr %8, i32 0, i32 1
  %77 = load ptr, ptr %76, align 8, !tbaa !151
  %78 = load ptr, ptr %5, align 8, !tbaa !68
  %79 = getelementptr inbounds nuw %struct.tree, ptr %78, i32 0, i32 0
  %80 = getelementptr inbounds nuw %struct.object, ptr %79, i32 0, i32 1
  %81 = call ptr @oid_to_hex(ptr noundef %80)
  call void (ptr, ...) @die(ptr noundef %75, ptr noundef %77, ptr noundef %81) #9
  unreachable

82:                                               ; preds = %64
  %83 = load ptr, ptr %10, align 8, !tbaa !68
  %84 = getelementptr inbounds nuw %struct.tree, ptr %83, i32 0, i32 0
  %85 = load i32, ptr %84, align 8
  %86 = lshr i32 %85, 4
  %87 = or i32 %86, 33554432
  %88 = load i32, ptr %84, align 8
  %89 = and i32 %87, 268435455
  %90 = shl i32 %89, 4
  %91 = and i32 %88, 15
  %92 = or i32 %91, %90
  store i32 %92, ptr %84, align 8
  %93 = load ptr, ptr %4, align 8, !tbaa !99
  %94 = getelementptr inbounds nuw %struct.traversal_context, ptr %93, i32 0, i32 5
  %95 = load i32, ptr %94, align 8, !tbaa !97
  %96 = add nsw i32 %95, 1
  store i32 %96, ptr %94, align 8, !tbaa !97
  %97 = load ptr, ptr %4, align 8, !tbaa !99
  %98 = load ptr, ptr %10, align 8, !tbaa !68
  %99 = load ptr, ptr %6, align 8, !tbaa !104
  %100 = getelementptr inbounds nuw %struct.name_entry, ptr %8, i32 0, i32 1
  %101 = load ptr, ptr %100, align 8, !tbaa !151
  call void @process_tree(ptr noundef %97, ptr noundef %98, ptr noundef %99, ptr noundef %101)
  %102 = load ptr, ptr %4, align 8, !tbaa !99
  %103 = getelementptr inbounds nuw %struct.traversal_context, ptr %102, i32 0, i32 5
  %104 = load i32, ptr %103, align 8, !tbaa !97
  %105 = add nsw i32 %104, -1
  store i32 %105, ptr %103, align 8, !tbaa !97
  call void @llvm.lifetime.end.p0(i64 8, ptr %10) #8
  br label %147

106:                                              ; preds = %59
  %107 = getelementptr inbounds nuw %struct.name_entry, ptr %8, i32 0, i32 3
  %108 = load i32, ptr %107, align 4, !tbaa !149
  %109 = and i32 %108, 61440
  %110 = icmp eq i32 %109, 57344
  br i1 %110, label %111, label %112

111:                                              ; preds = %106
  br label %146

112:                                              ; preds = %106
  call void @llvm.lifetime.start.p0(i64 8, ptr %11) #8
  %113 = load ptr, ptr %4, align 8, !tbaa !99
  %114 = getelementptr inbounds nuw %struct.traversal_context, ptr %113, i32 0, i32 0
  %115 = load ptr, ptr %114, align 8, !tbaa !90
  %116 = getelementptr inbounds nuw %struct.rev_info, ptr %115, i32 0, i32 2
  %117 = load ptr, ptr %116, align 8, !tbaa !73
  %118 = getelementptr inbounds nuw %struct.name_entry, ptr %8, i32 0, i32 0
  %119 = call ptr @lookup_blob(ptr noundef %117, ptr noundef %118)
  store ptr %119, ptr %11, align 8, !tbaa !120
  %120 = load ptr, ptr %11, align 8, !tbaa !120
  %121 = icmp ne ptr %120, null
  br i1 %121, label %130, label %122

122:                                              ; preds = %112
  %123 = call ptr @_(ptr noundef @.str.9)
  %124 = getelementptr inbounds nuw %struct.name_entry, ptr %8, i32 0, i32 1
  %125 = load ptr, ptr %124, align 8, !tbaa !151
  %126 = load ptr, ptr %5, align 8, !tbaa !68
  %127 = getelementptr inbounds nuw %struct.tree, ptr %126, i32 0, i32 0
  %128 = getelementptr inbounds nuw %struct.object, ptr %127, i32 0, i32 1
  %129 = call ptr @oid_to_hex(ptr noundef %128)
  call void (ptr, ...) @die(ptr noundef %123, ptr noundef %125, ptr noundef %129) #9
  unreachable

130:                                              ; preds = %112
  %131 = load ptr, ptr %11, align 8, !tbaa !120
  %132 = getelementptr inbounds nuw %struct.blob, ptr %131, i32 0, i32 0
  %133 = load i32, ptr %132, align 4
  %134 = lshr i32 %133, 4
  %135 = or i32 %134, 33554432
  %136 = load i32, ptr %132, align 4
  %137 = and i32 %135, 268435455
  %138 = shl i32 %137, 4
  %139 = and i32 %136, 15
  %140 = or i32 %139, %138
  store i32 %140, ptr %132, align 4
  %141 = load ptr, ptr %4, align 8, !tbaa !99
  %142 = load ptr, ptr %11, align 8, !tbaa !120
  %143 = load ptr, ptr %6, align 8, !tbaa !104
  %144 = getelementptr inbounds nuw %struct.name_entry, ptr %8, i32 0, i32 1
  %145 = load ptr, ptr %144, align 8, !tbaa !151
  call void @process_blob(ptr noundef %141, ptr noundef %142, ptr noundef %143, ptr noundef %145)
  call void @llvm.lifetime.end.p0(i64 8, ptr %11) #8
  br label %146

146:                                              ; preds = %130, %111
  br label %147

147:                                              ; preds = %146, %82
  br label %30, !llvm.loop !148

148:                                              ; preds = %53, %30
  call void @llvm.lifetime.end.p0(i64 4, ptr %9) #8
  call void @llvm.lifetime.end.p0(i64 56, ptr %8) #8
  call void @llvm.lifetime.end.p0(i64 80, ptr %7) #8
  ret void
}