; Function Attrs: nounwind uwtable
define internal fastcc void @process_tree_contents(ptr noundef nonnull captures(none) %0, ptr noundef nonnull %1, ptr noundef nonnull %2) unnamed_addr #0 {
  %4 = alloca %struct.tree_desc, align 8
  %5 = alloca %struct.name_entry, align 8
  call void @llvm.lifetime.start.p0(i64 80, ptr nonnull %4) #9
  call void @llvm.lifetime.start.p0(i64 56, ptr nonnull %5) #9
  %6 = load ptr, ptr %0, align 8, !tbaa !74
  %7 = getelementptr inbounds nuw i8, ptr %6, i64 1928
  %8 = load i32, ptr %7, align 8, !tbaa !101
  %9 = getelementptr inbounds nuw i8, ptr %1, i64 4
  %10 = getelementptr inbounds nuw i8, ptr %1, i64 40
  %11 = load ptr, ptr %10, align 8, !tbaa !102
  %12 = getelementptr inbounds nuw i8, ptr %1, i64 48
  %13 = load i64, ptr %12, align 8, !tbaa !106
  call void @init_tree_desc(ptr noundef nonnull %4, ptr noundef nonnull %9, ptr noundef %11, i64 noundef %13) #9
  %14 = call i32 @tree_entry(ptr noundef nonnull %4, ptr noundef nonnull %5) #9
  %.not32 = icmp eq i32 %14, 0
  br i1 %.not32, label %._crit_edge, label %.lr.ph

.lr.ph:                                           ; preds = %3
  %15 = icmp eq i32 %8, 0
  %16 = getelementptr inbounds nuw i8, ptr %5, i64 52
  %17 = getelementptr inbounds nuw i8, ptr %0, i64 40
  %18 = getelementptr inbounds nuw i8, ptr %5, i64 40
  %spec.select = select i1 %15, i32 2, i32 0
  br label %19

19:                                               ; preds = %.lr.ph, %.backedge
  %.033 = phi i32 [ %.0.be, %.backedge ], [ %spec.select, %.lr.ph ]
  %.not29 = icmp eq i32 %.033, 2
  br i1 %.not29, label %28, label %20

20:                                               ; preds = %19
  %21 = load ptr, ptr %0, align 8, !tbaa !74
  %22 = getelementptr inbounds nuw i8, ptr %21, i64 24
  %23 = load ptr, ptr %22, align 8, !tbaa !17
  %24 = getelementptr inbounds nuw i8, ptr %23, i64 384
  %25 = load ptr, ptr %24, align 8, !tbaa !107
  %26 = getelementptr inbounds nuw i8, ptr %21, i64 1928
  %27 = call i32 @tree_entry_interesting(ptr noundef %25, ptr noundef nonnull %5, ptr noundef nonnull %2, ptr noundef nonnull %26) #9
  switch i32 %27, label %28 [
    i32 -1, label %._crit_edge
    i32 0, label %.backedge
  ]

28:                                               ; preds = %20, %19
  %.1 = phi i32 [ 2, %19 ], [ %27, %20 ]
  %29 = load i32, ptr %16, align 4, !tbaa !125
  %30 = trunc i32 %29 to i16
  %trunc = and i16 %30, -4096
  switch i16 %trunc, label %48 [
    i16 16384, label %31
    i16 -8192, label %.backedge
  ]

31:                                               ; preds = %28
  %32 = load ptr, ptr %0, align 8, !tbaa !74
  %33 = getelementptr inbounds nuw i8, ptr %32, i64 24
  %34 = load ptr, ptr %33, align 8, !tbaa !17
  %35 = call ptr @lookup_tree(ptr noundef %34, ptr noundef nonnull %5) #9
  %.not31 = icmp eq ptr %35, null
  br i1 %.not31, label %36, label %40

36:                                               ; preds = %31
  %37 = call fastcc ptr @_(ptr noundef nonnull @.str.8)
  %38 = load ptr, ptr %18, align 8, !tbaa !127
  %39 = call ptr @oid_to_hex(ptr noundef nonnull %9) #9
  call void (ptr, ...) @die(ptr noundef %37, ptr noundef %38, ptr noundef %39) #10
  unreachable

40:                                               ; preds = %31
  %41 = load i32, ptr %35, align 8
  %42 = or i32 %41, 536870912
  store i32 %42, ptr %35, align 8
  %43 = load i32, ptr %17, align 8, !tbaa !92
  %44 = add nsw i32 %43, 1
  store i32 %44, ptr %17, align 8, !tbaa !92
  %45 = load ptr, ptr %18, align 8, !tbaa !127
  call fastcc void @process_tree(ptr noundef %0, ptr noundef nonnull %35, ptr noundef %2, ptr noundef %45)
  %46 = load i32, ptr %17, align 8, !tbaa !92
  %47 = add nsw i32 %46, -1
  store i32 %47, ptr %17, align 8, !tbaa !92
  br label %.backedge

48:                                               ; preds = %28
  %49 = load ptr, ptr %0, align 8, !tbaa !74
  %50 = getelementptr inbounds nuw i8, ptr %49, i64 24
  %51 = load ptr, ptr %50, align 8, !tbaa !17
  %52 = call ptr @lookup_blob(ptr noundef %51, ptr noundef nonnull %5) #9
  %.not30 = icmp eq ptr %52, null
  br i1 %.not30, label %53, label %57

53:                                               ; preds = %48
  %54 = call fastcc ptr @_(ptr noundef nonnull @.str.9)
  %55 = load ptr, ptr %18, align 8, !tbaa !127
  %56 = call ptr @oid_to_hex(ptr noundef nonnull %9) #9
  call void (ptr, ...) @die(ptr noundef %54, ptr noundef %55, ptr noundef %56) #10
  unreachable

57:                                               ; preds = %48
  %58 = load i32, ptr %52, align 4
  %59 = or i32 %58, 536870912
  store i32 %59, ptr %52, align 4
  %60 = load ptr, ptr %18, align 8, !tbaa !127
  call fastcc void @process_blob(ptr noundef %0, ptr noundef nonnull %52, ptr noundef %2, ptr noundef %60)
  br label %.backedge

.backedge:                                        ; preds = %40, %57, %28, %20
  %.0.be = phi i32 [ %27, %20 ], [ %.1, %28 ], [ %.1, %57 ], [ %.1, %40 ]
  %61 = call i32 @tree_entry(ptr noundef nonnull %4, ptr noundef nonnull %5) #9
  %.not = icmp eq i32 %61, 0
  br i1 %.not, label %._crit_edge, label %19, !llvm.loop !128

._crit_edge:                                      ; preds = %.backedge, %20, %3
  call void @llvm.lifetime.end.p0(i64 56, ptr nonnull %5) #9
  call void @llvm.lifetime.end.p0(i64 80, ptr nonnull %4) #9
  ret void
}